target datalayout = "e-m:e-p270:32:32-p271:32:32-p272:64:64-i64:64-i128:128-f80:128-n8:16:32:64-S128"
target triple = "x86_64-pc-linux-gnu"

%"class.ceres::LossFunction" = type { ptr }
%"class.ceres::CauchyLoss" = type { %"class.ceres::LossFunction", double, double }

; Function Attrs: inlinehint mustprogress nounwind uwtable
define linkonce_odr noundef nonnull align 8 dereferenceable(8) ptr @_ZSt3maxIdERKT_S2_S2_(ptr noundef nonnull align 8 dereferenceable(8) %0, ptr noundef nonnull align 8 dereferenceable(8) %1) #6 comdat {
  %3 = alloca ptr, align 8
  %4 = alloca ptr, align 8
  %5 = alloca ptr, align 8
  store ptr %0, ptr %4, align 8, !tbaa !12
  store ptr %1, ptr %5, align 8, !tbaa !12
  %6 = load ptr, ptr %4, align 8, !tbaa !12
  %7 = load double, ptr %6, align 8, !tbaa !10
  %8 = load ptr, ptr %5, align 8, !tbaa !12
  %9 = load double, ptr %8, align 8, !tbaa !10
  %10 = fcmp olt double %7, %9
  br i1 %10, label %11, label %13

11:                                               ; preds = %2
  %12 = load ptr, ptr %5, align 8, !tbaa !12
  store ptr %12, ptr %3, align 8
  br label %15

13:                                               ; preds = %2
  %14 = load ptr, ptr %4, align 8, !tbaa !12
  store ptr %14, ptr %3, align 8
  br label %15

15:                                               ; preds = %13, %11
  %16 = load ptr, ptr %3, align 8
  ret ptr %16
}

; Function Attrs: mustprogress nounwind uwtable
define linkonce_odr hidden noundef double @_ZNSt14numeric_limitsIdE3minEv() #0 comdat align 2 {
  ret double 0x10000000000000
}

; Function Attrs: mustprogress uwtable
define hidden void @_ZNK5ceres10CauchyLoss8EvaluateEdPd(ptr noundef nonnull align 8 dereferenceable(24) %0, double noundef %1, ptr noundef %2) unnamed_addr #2 align 2 {
  %4 = alloca ptr, align 8
  %5 = alloca double, align 8
  %6 = alloca ptr, align 8
  %7 = alloca double, align 8
  %8 = alloca double, align 8
  %9 = alloca double, align 8
  store ptr %0, ptr %4, align 8, !tbaa !27
  store double %1, ptr %5, align 8, !tbaa !10
  store ptr %2, ptr %6, align 8, !tbaa !12
  %10 = load ptr, ptr %4, align 8
  call void @llvm.lifetime.start.p0(i64 8, ptr %7) #15
  %11 = load double, ptr %5, align 8, !tbaa !10
  %12 = getelementptr inbounds nuw %"class.ceres::CauchyLoss", ptr %10, i32 0, i32 2
  %13 = load double, ptr %12, align 8, !tbaa !29
  %14 = call double @llvm.fmuladd.f64(double %11, double %13, double 1.000000e+00)
  store double %14, ptr %7, align 8, !tbaa !10
  call void @llvm.lifetime.start.p0(i64 8, ptr %8) #15
  %15 = load double, ptr %7, align 8, !tbaa !10
  %16 = fdiv double 1.000000e+00, %15
  store double %16, ptr %8, align 8, !tbaa !10
  %17 = getelementptr inbounds nuw %"class.ceres::CauchyLoss", ptr %10, i32 0, i32 1
  %18 = load double, ptr %17, align 8, !tbaa !31
  %19 = load double, ptr %7, align 8, !tbaa !10
  %20 = call double @log(double noundef %19) #15, !tbaa !19
  %21 = fmul double %18, %20
  %22 = load ptr, ptr %6, align 8, !tbaa !12
  %23 = getelementptr inbounds double, ptr %22, i64 0
  store double %21, ptr %23, align 8, !tbaa !10
  call void @llvm.lifetime.start.p0(i64 8, ptr %9) #15
  %24 = call noundef double @_ZNSt14numeric_limitsIdE3minEv() #15
  store double %24, ptr %9, align 8, !tbaa !10
  %25 = call noundef nonnull align 8 dereferenceable(8) ptr @_ZSt3maxIdERKT_S2_S2_(ptr noundef nonnull align 8 dereferenceable(8) %9, ptr noundef nonnull align 8 dereferenceable(8) %8)
  %26 = load double, ptr %25, align 8, !tbaa !10
  %27 = load ptr, ptr %6, align 8, !tbaa !12
  %28 = getelementptr inbounds double, ptr %27, i64 1
  store double %26, ptr %28, align 8, !tbaa !10
  call void @llvm.lifetime.end.p0(i64 8, ptr %9) #15
  %29 = getelementptr inbounds nuw %"class.ceres::CauchyLoss", ptr %10, i32 0, i32 2
  %30 = load double, ptr %29, align 8, !tbaa !29
  %31 = fneg double %30
  %32 = load double, ptr %8, align 8, !tbaa !10
  %33 = load double, ptr %8, align 8, !tbaa !10
  %34 = fmul double %32, %33
  %35 = fmul double %31, %34
  %36 = load ptr, ptr %6, align 8, !tbaa !12
  %37 = getelementptr inbounds double, ptr %36, i64 2
  store double %35, ptr %37, align 8, !tbaa !10
  call void @llvm.lifetime.end.p0(i64 8, ptr %8) #15
  call void @llvm.lifetime.end.p0(i64 8, ptr %7) #15
  ret void
}