; Function Attrs: mustprogress nofree nounwind willreturn memory(write, argmem: readwrite) uwtable
define hidden void @_ZNK5ceres10CauchyLoss8EvaluateEdPd(ptr noundef nonnull readonly align 8 captures(none) dereferenceable(24) %0, double noundef %1, ptr noundef writeonly captures(none) initializes((0, 24)) %2) unnamed_addr #3 align 2 {
  %4 = getelementptr inbounds nuw i8, ptr %0, i64 16
  %5 = load double, ptr %4, align 8, !tbaa !16
  %6 = tail call double @llvm.fmuladd.f64(double %1, double %5, double 1.000000e+00)
  %7 = fdiv double 1.000000e+00, %6
  %8 = getelementptr inbounds nuw i8, ptr %0, i64 8
  %9 = load double, ptr %8, align 8, !tbaa !18
  %10 = tail call double @log(double noundef %6) #17, !tbaa !10
  %11 = fmul double %9, %10
  store double %11, ptr %2, align 8, !tbaa !3
  %12 = fcmp ogt double %7, 0x10000000000000
  %.sroa.speculated = select i1 %12, double %7, double 0x10000000000000
  %13 = getelementptr inbounds nuw i8, ptr %2, i64 8
  store double %.sroa.speculated, ptr %13, align 8, !tbaa !3
  %14 = load double, ptr %4, align 8, !tbaa !16
  %15 = fneg double %14
  %16 = fmul double %7, %7
  %17 = fmul double %16, %15
  %18 = getelementptr inbounds nuw i8, ptr %2, i64 16
  store double %17, ptr %18, align 8, !tbaa !3
  ret void
}